target datalayout = "e-m:e-p270:32:32-p271:32:32-p272:64:64-i64:64-i128:128-f80:128-n8:16:32:64-S128"
target triple = "x86_64-unknown-linux-gnu"

%"class.eastl::span" = type { ptr, i64 }

@.str = private unnamed_addr constant [114 x i8] c"generated/home/dtcxzyw/WorkSpace/Projects/compilers/llvm-opt-benchmark/bench/eastl/EASTL/test/source/TestSpan.cpp\00", align 1
@__const._Z22TestSpanCopyAssignmentRi.arr = private unnamed_addr constant [5 x i32] [i32 0, i32 1, i32 2, i32 3, i32 4], align 16
@.str.32 = private unnamed_addr constant [14 x i8] c"s[0] == sc[0]\00", align 1
@.str.33 = private unnamed_addr constant [14 x i8] c"s[1] == sc[1]\00", align 1
@.str.34 = private unnamed_addr constant [14 x i8] c"s[2] == sc[2]\00", align 1
@.str.35 = private unnamed_addr constant [14 x i8] c"s[3] == sc[3]\00", align 1
@.str.36 = private unnamed_addr constant [14 x i8] c"s[4] == sc[4]\00", align 1
@.str.37 = private unnamed_addr constant [14 x i8] c"s(0) == sc(0)\00", align 1
@.str.38 = private unnamed_addr constant [14 x i8] c"s(1) == sc(1)\00", align 1
@.str.39 = private unnamed_addr constant [14 x i8] c"s(2) == sc(2)\00", align 1
@.str.40 = private unnamed_addr constant [14 x i8] c"s(3) == sc(3)\00", align 1
@.str.41 = private unnamed_addr constant [14 x i8] c"s(4) == sc(4)\00", align 1

; Function Attrs: mustprogress nounwind uwtable
define linkonce_odr dso_local void @_ZN5eastl4spanIiLm18446744073709551615EEC2EPim(ptr noundef nonnull align 8 dereferenceable(16) %this, ptr noundef %ptr, i64 noundef %size) unnamed_addr #1 comdat align 2 {
entry:
  %this.addr = alloca ptr, align 8
  %ptr.addr = alloca ptr, align 8
  %size.addr = alloca i64, align 8
  store ptr %this, ptr %this.addr, align 8
  store ptr %ptr, ptr %ptr.addr, align 8
  store i64 %size, ptr %size.addr, align 8
  %this1 = load ptr, ptr %this.addr, align 8
  %mpData = getelementptr inbounds %"class.eastl::span", ptr %this1, i32 0, i32 0
  %0 = load ptr, ptr %ptr.addr, align 8
  store ptr %0, ptr %mpData, align 8
  %mnSize = getelementptr inbounds %"class.eastl::span", ptr %this1, i32 0, i32 1
  %1 = load i64, ptr %size.addr, align 8
  store i64 %1, ptr %mnSize, align 8
  ret void
}

; Function Attrs: mustprogress nounwind uwtable
define linkonce_odr dso_local noundef nonnull align 4 dereferenceable(4) ptr @_ZNK5eastl4spanIiLm18446744073709551615EEclEm(ptr noundef nonnull align 8 dereferenceable(16) %this, i64 noundef %idx) #1 comdat align 2 {
entry:
  %this.addr = alloca ptr, align 8
  %idx.addr = alloca i64, align 8
  store ptr %this, ptr %this.addr, align 8
  store i64 %idx, ptr %idx.addr, align 8
  %this1 = load ptr, ptr %this.addr, align 8
  %mpData = getelementptr inbounds %"class.eastl::span", ptr %this1, i32 0, i32 0
  %0 = load ptr, ptr %mpData, align 8
  %1 = load i64, ptr %idx.addr, align 8
  %arrayidx = getelementptr inbounds i32, ptr %0, i64 %1
  ret ptr %arrayidx
}

; Function Attrs: mustprogress nounwind uwtable
define linkonce_odr dso_local noundef nonnull align 4 dereferenceable(4) ptr @_ZNK5eastl4spanIiLm18446744073709551615EEixEm(ptr noundef nonnull align 8 dereferenceable(16) %this, i64 noundef %idx) #1 comdat align 2 {
entry:
  %this.addr = alloca ptr, align 8
  %idx.addr = alloca i64, align 8
  store ptr %this, ptr %this.addr, align 8
  store i64 %idx, ptr %idx.addr, align 8
  %this1 = load ptr, ptr %this.addr, align 8
  %mpData = getelementptr inbounds %"class.eastl::span", ptr %this1, i32 0, i32 0
  %0 = load ptr, ptr %mpData, align 8
  %1 = load i64, ptr %idx.addr, align 8
  %arrayidx = getelementptr inbounds i32, ptr %0, i64 %1
  ret ptr %arrayidx
}

; Function Attrs: mustprogress nounwind uwtable
define linkonce_odr dso_local void @_ZN5eastl4spanIiLm18446744073709551615EEC2ILm5EvEERAT__i(ptr noundef nonnull align 8 dereferenceable(16) %this, ptr noundef nonnull align 4 dereferenceable(20) %arr) unnamed_addr #1 comdat align 2 {
entry:
  %this.addr = alloca ptr, align 8
  %arr.addr = alloca ptr, align 8
  store ptr %this, ptr %this.addr, align 8
  store ptr %arr, ptr %arr.addr, align 8
  %this1 = load ptr, ptr %this.addr, align 8
  %0 = load ptr, ptr %arr.addr, align 8
  %arraydecay = getelementptr inbounds [5 x i32], ptr %0, i64 0, i64 0
  call void @_ZN5eastl4spanIiLm18446744073709551615EEC2EPim(ptr noundef nonnull align 8 dereferenceable(16) %this1, ptr noundef %arraydecay, i64 noundef 5)
  ret void
}

; Function Attrs: mustprogress uwtable
define dso_local void @_Z22TestSpanCopyAssignmentRi(ptr noundef nonnull align 4 dereferenceable(4) %nErrorCount) #0 {
entry:
  %nErrorCount.addr = alloca ptr, align 8
  %arr = alloca [5 x i32], align 16
  %s = alloca %"class.eastl::span", align 8
  %sc = alloca %"class.eastl::span", align 8
  store ptr %nErrorCount, ptr %nErrorCount.addr, align 8
  call void @llvm.memcpy.p0.p0.i64(ptr align 16 %arr, ptr align 16 @__const._Z22TestSpanCopyAssignmentRi.arr, i64 20, i1 false)
  call void @_ZN5eastl4spanIiLm18446744073709551615EEC2ILm5EvEERAT__i(ptr noundef nonnull align 8 dereferenceable(16) %s, ptr noundef nonnull align 4 dereferenceable(20) %arr) #7
  call void @llvm.memcpy.p0.p0.i64(ptr align 8 %sc, ptr align 8 %s, i64 16, i1 false)
  %call = call noundef nonnull align 4 dereferenceable(4) ptr @_ZNK5eastl4spanIiLm18446744073709551615EEixEm(ptr noundef nonnull align 8 dereferenceable(16) %s, i64 noundef 0)
  %0 = load i32, ptr %call, align 4
  %call1 = call noundef nonnull align 4 dereferenceable(4) ptr @_ZNK5eastl4spanIiLm18446744073709551615EEixEm(ptr noundef nonnull align 8 dereferenceable(16) %sc, i64 noundef 0)
  %1 = load i32, ptr %call1, align 4
  %cmp = icmp eq i32 %0, %1
  %2 = load ptr, ptr %nErrorCount.addr, align 8
  %call2 = call noundef i32 @_ZN2EA8UnitTest12TestInternal17EATEST_VERIFY_IMPEbRiPKciS4_(i1 noundef zeroext %cmp, ptr noundef nonnull align 4 dereferenceable(4) %2, ptr noundef @.str, i32 noundef 248, ptr noundef @.str.32)
  %call3 = call noundef nonnull align 4 dereferenceable(4) ptr @_ZNK5eastl4spanIiLm18446744073709551615EEixEm(ptr noundef nonnull align 8 dereferenceable(16) %s, i64 noundef 1)
  %3 = load i32, ptr %call3, align 4
  %call4 = call noundef nonnull align 4 dereferenceable(4) ptr @_ZNK5eastl4spanIiLm18446744073709551615EEixEm(ptr noundef nonnull align 8 dereferenceable(16) %sc, i64 noundef 1)
  %4 = load i32, ptr %call4, align 4
  %cmp5 = icmp eq i32 %3, %4
  %5 = load ptr, ptr %nErrorCount.addr, align 8
  %call6 = call noundef i32 @_ZN2EA8UnitTest12TestInternal17EATEST_VERIFY_IMPEbRiPKciS4_(i1 noundef zeroext %cmp5, ptr noundef nonnull align 4 dereferenceable(4) %5, ptr noundef @.str, i32 noundef 249, ptr noundef @.str.33)
  %call7 = call noundef nonnull align 4 dereferenceable(4) ptr @_ZNK5eastl4spanIiLm18446744073709551615EEixEm(ptr noundef nonnull align 8 dereferenceable(16) %s, i64 noundef 2)
  %6 = load i32, ptr %call7, align 4
  %call8 = call noundef nonnull align 4 dereferenceable(4) ptr @_ZNK5eastl4spanIiLm18446744073709551615EEixEm(ptr noundef nonnull align 8 dereferenceable(16) %sc, i64 noundef 2)
  %7 = load i32, ptr %call8, align 4
  %cmp9 = icmp eq i32 %6, %7
  %8 = load ptr, ptr %nErrorCount.addr, align 8
  %call10 = call noundef i32 @_ZN2EA8UnitTest12TestInternal17EATEST_VERIFY_IMPEbRiPKciS4_(i1 noundef zeroext %cmp9, ptr noundef nonnull align 4 dereferenceable(4) %8, ptr noundef @.str, i32 noundef 250, ptr noundef @.str.34)
  %call11 = call noundef nonnull align 4 dereferenceable(4) ptr @_ZNK5eastl4spanIiLm18446744073709551615EEixEm(ptr noundef nonnull align 8 dereferenceable(16) %s, i64 noundef 3)
  %9 = load i32, ptr %call11, align 4
  %call12 = call noundef nonnull align 4 dereferenceable(4) ptr @_ZNK5eastl4spanIiLm18446744073709551615EEixEm(ptr noundef nonnull align 8 dereferenceable(16) %sc, i64 noundef 3)
  %10 = load i32, ptr %call12, align 4
  %cmp13 = icmp eq i32 %9, %10
  %11 = load ptr, ptr %nErrorCount.addr, align 8
  %call14 = call noundef i32 @_ZN2EA8UnitTest12TestInternal17EATEST_VERIFY_IMPEbRiPKciS4_(i1 noundef zeroext %cmp13, ptr noundef nonnull align 4 dereferenceable(4) %11, ptr noundef @.str, i32 noundef 251, ptr noundef @.str.35)
  %call15 = call noundef nonnull align 4 dereferenceable(4) ptr @_ZNK5eastl4spanIiLm18446744073709551615EEixEm(ptr noundef nonnull align 8 dereferenceable(16) %s, i64 noundef 4)
  %12 = load i32, ptr %call15, align 4
  %call16 = call noundef nonnull align 4 dereferenceable(4) ptr @_ZNK5eastl4spanIiLm18446744073709551615EEixEm(ptr noundef nonnull align 8 dereferenceable(16) %sc, i64 noundef 4)
  %13 = load i32, ptr %call16, align 4
  %cmp17 = icmp eq i32 %12, %13
  %14 = load ptr, ptr %nErrorCount.addr, align 8
  %call18 = call noundef i32 @_ZN2EA8UnitTest12TestInternal17EATEST_VERIFY_IMPEbRiPKciS4_(i1 noundef zeroext %cmp17, ptr noundef nonnull align 4 dereferenceable(4) %14, ptr noundef @.str, i32 noundef 252, ptr noundef @.str.36)
  %call19 = call noundef nonnull align 4 dereferenceable(4) ptr @_ZNK5eastl4spanIiLm18446744073709551615EEclEm(ptr noundef nonnull align 8 dereferenceable(16) %s, i64 noundef 0)
  %15 = load i32, ptr %call19, align 4
  %call20 = call noundef nonnull align 4 dereferenceable(4) ptr @_ZNK5eastl4spanIiLm18446744073709551615EEclEm(ptr noundef nonnull align 8 dereferenceable(16) %sc, i64 noundef 0)
  %16 = load i32, ptr %call20, align 4
  %cmp21 = icmp eq i32 %15, %16
  %17 = load ptr, ptr %nErrorCount.addr, align 8
  %call22 = call noundef i32 @_ZN2EA8UnitTest12TestInternal17EATEST_VERIFY_IMPEbRiPKciS4_(i1 noundef zeroext %cmp21, ptr noundef nonnull align 4 dereferenceable(4) %17, ptr noundef @.str, i32 noundef 254, ptr noundef @.str.37)
  %call23 = call noundef nonnull align 4 dereferenceable(4) ptr @_ZNK5eastl4spanIiLm18446744073709551615EEclEm(ptr noundef nonnull align 8 dereferenceable(16) %s, i64 noundef 1)
  %18 = load i32, ptr %call23, align 4
  %call24 = call noundef nonnull align 4 dereferenceable(4) ptr @_ZNK5eastl4spanIiLm18446744073709551615EEclEm(ptr noundef nonnull align 8 dereferenceable(16) %sc, i64 noundef 1)
  %19 = load i32, ptr %call24, align 4
  %cmp25 = icmp eq i32 %18, %19
  %20 = load ptr, ptr %nErrorCount.addr, align 8
  %call26 = call noundef i32 @_ZN2EA8UnitTest12TestInternal17EATEST_VERIFY_IMPEbRiPKciS4_(i1 noundef zeroext %cmp25, ptr noundef nonnull align 4 dereferenceable(4) %20, ptr noundef @.str, i32 noundef 255, ptr noundef @.str.38)
  %call27 = call noundef nonnull align 4 dereferenceable(4) ptr @_ZNK5eastl4spanIiLm18446744073709551615EEclEm(ptr noundef nonnull align 8 dereferenceable(16) %s, i64 noundef 2)
  %21 = load i32, ptr %call27, align 4
  %call28 = call noundef nonnull align 4 dereferenceable(4) ptr @_ZNK5eastl4spanIiLm18446744073709551615EEclEm(ptr noundef nonnull align 8 dereferenceable(16) %sc, i64 noundef 2)
  %22 = load i32, ptr %call28, align 4
  %cmp29 = icmp eq i32 %21, %22
  %23 = load ptr, ptr %nErrorCount.addr, align 8
  %call30 = call noundef i32 @_ZN2EA8UnitTest12TestInternal17EATEST_VERIFY_IMPEbRiPKciS4_(i1 noundef zeroext %cmp29, ptr noundef nonnull align 4 dereferenceable(4) %23, ptr noundef @.str, i32 noundef 256, ptr noundef @.str.39)
  %call31 = call noundef nonnull align 4 dereferenceable(4) ptr @_ZNK5eastl4spanIiLm18446744073709551615EEclEm(ptr noundef nonnull align 8 dereferenceable(16) %s, i64 noundef 3)
  %24 = load i32, ptr %call31, align 4
  %call32 = call noundef nonnull align 4 dereferenceable(4) ptr @_ZNK5eastl4spanIiLm18446744073709551615EEclEm(ptr noundef nonnull align 8 dereferenceable(16) %sc, i64 noundef 3)
  %25 = load i32, ptr %call32, align 4
  %cmp33 = icmp eq i32 %24, %25
  %26 = load ptr, ptr %nErrorCount.addr, align 8
  %call34 = call noundef i32 @_ZN2EA8UnitTest12TestInternal17EATEST_VERIFY_IMPEbRiPKciS4_(i1 noundef zeroext %cmp33, ptr noundef nonnull align 4 dereferenceable(4) %26, ptr noundef @.str, i32 noundef 257, ptr noundef @.str.40)
  %call35 = call noundef nonnull align 4 dereferenceable(4) ptr @_ZNK5eastl4spanIiLm18446744073709551615EEclEm(ptr noundef nonnull align 8 dereferenceable(16) %s, i64 noundef 4)
  %27 = load i32, ptr %call35, align 4
  %call36 = call noundef nonnull align 4 dereferenceable(4) ptr @_ZNK5eastl4spanIiLm18446744073709551615EEclEm(ptr noundef nonnull align 8 dereferenceable(16) %sc, i64 noundef 4)
  %28 = load i32, ptr %call36, align 4
  %cmp37 = icmp eq i32 %27, %28
  %29 = load ptr, ptr %nErrorCount.addr, align 8
  %call38 = call noundef i32 @_ZN2EA8UnitTest12TestInternal17EATEST_VERIFY_IMPEbRiPKciS4_(i1 noundef zeroext %cmp37, ptr noundef nonnull align 4 dereferenceable(4) %29, ptr noundef @.str, i32 noundef 258, ptr noundef @.str.41)
  ret void
}