; Function Attrs: mustprogress uwtable
define dso_local void @_Z22TestSpanCopyAssignmentRi(ptr noundef nonnull align 4 dereferenceable(4) %nErrorCount) local_unnamed_addr #0 {
entry:
  %call2 = tail call noundef i32 @_ZN2EA8UnitTest12TestInternal17EATEST_VERIFY_IMPEbRiPKciS4_(i1 noundef zeroext true, ptr noundef nonnull align 4 dereferenceable(4) %nErrorCount, ptr noundef nonnull @.str, i32 noundef 248, ptr noundef nonnull @.str.32)
  %call6 = tail call noundef i32 @_ZN2EA8UnitTest12TestInternal17EATEST_VERIFY_IMPEbRiPKciS4_(i1 noundef zeroext true, ptr noundef nonnull align 4 dereferenceable(4) %nErrorCount, ptr noundef nonnull @.str, i32 noundef 249, ptr noundef nonnull @.str.33)
  %call10 = tail call noundef i32 @_ZN2EA8UnitTest12TestInternal17EATEST_VERIFY_IMPEbRiPKciS4_(i1 noundef zeroext true, ptr noundef nonnull align 4 dereferenceable(4) %nErrorCount, ptr noundef nonnull @.str, i32 noundef 250, ptr noundef nonnull @.str.34)
  %call14 = tail call noundef i32 @_ZN2EA8UnitTest12TestInternal17EATEST_VERIFY_IMPEbRiPKciS4_(i1 noundef zeroext true, ptr noundef nonnull align 4 dereferenceable(4) %nErrorCount, ptr noundef nonnull @.str, i32 noundef 251, ptr noundef nonnull @.str.35)
  %call18 = tail call noundef i32 @_ZN2EA8UnitTest12TestInternal17EATEST_VERIFY_IMPEbRiPKciS4_(i1 noundef zeroext true, ptr noundef nonnull align 4 dereferenceable(4) %nErrorCount, ptr noundef nonnull @.str, i32 noundef 252, ptr noundef nonnull @.str.36)
  %call22 = tail call noundef i32 @_ZN2EA8UnitTest12TestInternal17EATEST_VERIFY_IMPEbRiPKciS4_(i1 noundef zeroext true, ptr noundef nonnull align 4 dereferenceable(4) %nErrorCount, ptr noundef nonnull @.str, i32 noundef 254, ptr noundef nonnull @.str.37)
  %call26 = tail call noundef i32 @_ZN2EA8UnitTest12TestInternal17EATEST_VERIFY_IMPEbRiPKciS4_(i1 noundef zeroext true, ptr noundef nonnull align 4 dereferenceable(4) %nErrorCount, ptr noundef nonnull @.str, i32 noundef 255, ptr noundef nonnull @.str.38)
  %call30 = tail call noundef i32 @_ZN2EA8UnitTest12TestInternal17EATEST_VERIFY_IMPEbRiPKciS4_(i1 noundef zeroext true, ptr noundef nonnull align 4 dereferenceable(4) %nErrorCount, ptr noundef nonnull @.str, i32 noundef 256, ptr noundef nonnull @.str.39)
  %call34 = tail call noundef i32 @_ZN2EA8UnitTest12TestInternal17EATEST_VERIFY_IMPEbRiPKciS4_(i1 noundef zeroext true, ptr noundef nonnull align 4 dereferenceable(4) %nErrorCount, ptr noundef nonnull @.str, i32 noundef 257, ptr noundef nonnull @.str.40)
  %call38 = tail call noundef i32 @_ZN2EA8UnitTest12TestInternal17EATEST_VERIFY_IMPEbRiPKciS4_(i1 noundef zeroext true, ptr noundef nonnull align 4 dereferenceable(4) %nErrorCount, ptr noundef nonnull @.str, i32 noundef 258, ptr noundef nonnull @.str.41)
  ret void
}